c__builtin__
set
p0
((lp1
Vbahqzrsqh
p2
aVJeremyfts
p3
aVrama.vundela
p4
aVfwtyrksqyol
p5
aVlezmrvheci
p6
aVGuyfqjgm
p7
aVtqgtmjqchtd
p8
aVacxxncnplwb
p9
aVGabrieltto
p10
aVIngemarqgcmw
p11
aVToddebpbf
p12
aVaniSababah15
p13
aVcyfeamtakbh
p14
aVOscarwrsb
p15
aVJackqhl
p16
aVTaesh
p17
aVSampsonmwtlg
p18
aVzikzgzzvhmx
p19
aVMerleckek
p20
aVanqufsubhkn
p21
aVsaarwass
p22
aVlhgkkvordlq
p23
aVNigeleruc
p24
aVzckngfktbj
p25
aVifrykndiy
p26
aVJulianxzv
p27
aVszabmxxxtrc
p28
aVpedronetto
p29
aVgkshwdugovs
p30
aVMaxspi
p31
aVumaviqisovm
p32
aVMaricocigh
p33
aVwwmakzzbdmt
p34
aVWebbwfq
p35
aVkwtytepaqiw
p36
aVqvluborcgqj
p37
aVQuentinqrlq
p38
aVJessewrccn
p39
aVllicjciji
p40
aVgxsyigcokpr
p41
aVDominicjola
p42
aVrfdnxiqtitk
p43
aVmselcdmyg
p44
aVSteveVai
p45
aVCB3
p46
aVJojsbk
p47
aVivpivlutbtf
p48
aViezcwhxoywa
p49
aVwqerqwerqw
p50
aVffjdbzkflbu
p51
aVsrwqdcxydom
p52
aVMaxeoc
p53
aVgfmgniqmyv
p54
aVfnitgqophik
p55
aVujkocqcgajw
p56
aVmaohendo
p57
aVjfgwkpssnpz
p58
aVpnhnsfjafzr
p59
aVrpyziwoedom
p60
aVwqyrowerwq
p61
aVTobymqyap
p62
aVgrdethmadu
p63
aVValentinexakq
p64
aVgkcpppityj
p65
aVlsnvoifktal
p66
aVWilliebolou
p67
aVJoshua911
p68
aVTomusurh
p69
aVvmawhncncgs
p70
aVHirammrniu
p71
aVfrtttbrzoqf
p72
aVwhdawueizzk
p73
aVnwdfiwaapky
p74
aVStanleyvegif
p75
aVUlyssesucem
p76
aVfqziksanjkl
p77
aVpickermike
p78
aVWinfredalnt
p79
aVbffvjdfqo
p80
aVbhagvank
p81
aVfasdfqwerwe
p82
aVwqerqerqwerq
p83
aVSilvesterkcdx
p84
aVPrimoydlah
p85
aVerldeflpqmt
p86
aVlvclqjhrwbm
p87
aVouruwizdbdo
p88
aVudpqlnopizy
p89
aVFabianvslc
p90
aVTMALBONPH
p91
aVzhaoguangming
p92
aVdygokeypf
p93
aVDonahueycbxv
p94
aVwphfzujcbyb
p95
aVMarlontcna
p96
aVdefgwangfeng
p97
aVktxpvckmd
p98
aVwangbaliouer
p99
aVsmldvqvqrjb
p100
aVzvqzwxogp
p101
aVTobiasnsl
p102
aVuiofptyhnrl
p103
aVkkbezxvfcwf
p104
aVgagandeep531
p105
aVxijinghuanger
p106
aVmiwdbskre
p107
aVuybfqmpobz
p108
aVetzyzyxyst
p109
aVLesxvux
p110
aVLenwajox
p111
aVpcbprsahxcy
p112
aVhtjqdgxfugf
p113
aVMilesdgcs
p114
aVimlgxbatyr
p115
aVqdytaytyyxf
p116
aVjpvdhhpnff
p117
aVDominiccuen
p118
aVEdwardobnxf
p119
aVnkvknzrgvvh
p120
aVimqysrmqheo
p121
aVLionelfczn
p122
aVnlinpvpvryf
p123
aVlilqtubabnf
p124
aVnjilvlkqhcu
p125
aVnyxiiybqgyu
p126
aVtkbnpyhomql
p127
aVekyzmcfmpg
p128
aVMatthewlygl
p129
aVclgmbeino
p130
aVerssjowwznt
p131
aVkzer95_tc
p132
aVbksganwpatq
p133
aVerhglewmzys
p134
aVIsaacuuopi
p135
aVwzxszunxprv
p136
aVIvanbppg
p137
aVarxxonech
p138
aVtvjllncdfzl
p139
aVzaswhdhkcqi
p140
aVnblsborxlcl
p141
aVtheoappirio
p142
aVzamunkthm
p143
aVMatttrd
p144
aVwlrrhhzlzoi
p145
aVNathanctevl
p146
aVzhangdayingly
p147
aVrehaaan013
p148
aVpcusrxmrgcd
p149
aVdizbnhchtj
p150
aVzhangchanggler
p151
aVbladekkieez
p152
aVelewsksdo
p153
aVxzrbgroxohe
p154
aVxlodbqkpnql
p155
aVwuzcmyrsuwq
p156
aVzjxsrotdqb
p157
aVucmljzbfcz
p158
aVNortonkisjn
p159
aVkgbgwlsod
p160
aVwikkermyself
p161
aVeftsbpuoyyb
p162
aVxetpgbsfh
p163
aVyangjungyingg
p164
aVliyingpgger
p165
aVReubenidl
p166
aVtzwghgtaegb
p167
aVdzopvsevfqn
p168
aVGriffithhvnhk
p169
aVJeromeaht
p170
aVzijoasytvg
p171
aVchovqlxoney
p172
aVwaltersobchak
p173
aVMarkecgzi
p174
aVElivgtmn
p175
aVdhteisotdib
p176
aVMaximilianunbf
p177
aVhrkrulozwl
p178
aVnjotdkfxvmv
p179
aVrqrfjodpiow
p180
aVfmucjhrqjms
p181
aVkifzzelkrl
p182
aVgaletrail
p183
aVLucientoyik
p184
aVgbwufubhrwv
p185
aVeiqvttcuizp
p186
aVrfauver
p187
aVPrescottvoh
p188
aVEvanerao
p189
aVNeha jain
p190
aVgteslfhcd
p191
aVhkfybvgbzde
p192
aVrfzvpjzqygv
p193
aVxbxueowtdn
p194
aVGenebijg
p195
aVfrhqsatgi
p196
aVdutuumxuin
p197
aVyztlmpjqktk
p198
aVVivianhgk
p199
aVmovvadinesh
p200
aVvobvchrvunm
p201
aVhkcujvdrrai
p202
aVdtecdxkla
p203
aVrwbpnaykbuq
p204
aVgaoyouling166
p205
aVMurrayvtzs
p206
aVKimewae
p207
aVFrankepl
p208
aVzklzhafdrjz
p209
aVcezpgkqbyny
p210
aVignfernandez
p211
aVtsezhzvtch
p212
aVfpfszcoihum
p213
aVcukdhyxcdgu
p214
aVRodwgnc
p215
aVgwbrzfuih
p216
aVvkcrwnkzkwo
p217
aVldporsfrqav
p218
aVccktkalldrf
p219
aVmjwasouslj
p220
aVcwotbnjoibz
p221
aVhiixmiuiwik
p222
aVslemxrgzd
p223
aVdxvvauvejzp
p224
aVluxltyeoxlf
p225
aVgkvofosczhp
p226
aVbctmiyhslsb
p227
aVMortimerfvvc
p228
aVdbgdoblygw
p229
aVgpveehmhtdn
p230
aVKimhcves
p231
aVhbmcxxjltsw
p232
aVKennedyuegk
p233
aVrsrtalfygpo
p234
aVpixrfomri
p235
aVevtsmgwtpnp
p236
aVEricapbbm
p237
aVtbooetmztg
p238
aVbbzgplufy
p239
aVwbrnohjtccf
p240
aVFrankgyl
p241
aVqmtkdvpnayi
p242
aVlnrjmjhgbmt
p243
aVwrrxktoexhy
p244
aVKerrqbsfs
p245
aVmjvehjuqck
p246
aVEdwardmnxsz
p247
aVjeffdonthemic
p248
aVeagvaotfjg
p249
aVQuenneljrbip
p250
aVrvqoxzyivwq
p251
aVMortonycu
p252
aVtcsqyizpe
p253
aVnvxdttiklkn
p254
aVthdxnabcjnx
p255
aVtomxnyrobwl
p256
aVlibingquanglj
p257
aVpstddnfasef
p258
aVliqingqunan
p259
aVbrnycuusio
p260
aVeebiqsyiwpv
p261
aVEdwiinmhifw
p262
aVUptonveap
p263
aVoguovjzxobj
p264
aVwqwqerrqwrwr
p265
aVsxihebsydmu
p266
aVWilliamikk
p267
aVkcfxpozlyw
p268
aVhbcynwlrj
p269
aVderwrtwetew
p270
aVRyannkh
p271
aViufowtxad
p272
aVEricdczfj
p273
aVwqfmnyqkkls
p274
aVllprtcfjnve
p275
aVyrcsunpdz
p276
aVmftoxtvnpd
p277
aVklljozbgbgy
p278
aVmlihjgxvew
p279
aVhyaadmjoflj
p280
aVMaximiliannzpjb
p281
aVmqkqqdfhm
p282
aVgvgkcxkyjnp
p283
aVJosephldhog
p284
aVLynnrhfr
p285
aVzdmrykmhnrr
p286
aVnhxxdrlivsa
p287
aVJustinzxb
p288
aVmlfsvhhdc
p289
aVwgcsttiage
p290
aVphxioylhfob
p291
aVHilaryagf
p292
aVcodeni
p293
aVbmbwcbbtdfl
p294
aVLeninufn
p295
aVoobwhkkhwm
p296
aVfvdybflcrf
p297
aVSampsonnfu
p298
aVEvanxsax
p299
aVszvjwusaedw
p300
aVusjnhecaxft
p301
aVgswnelneiuf
p302
aVWebbazf
p303
aVakcgziwcwmj
p304
aVocshsjhoumz
p305
aVStangrhok
p306
aVpoiuyytrwq
p307
aVHaletjsk
p308
aVerwrq235123
p309
aVEdwardxjfwq
p310
aVkwrhczuwzss
p311
aVllpcltuii
p312
aViliovddsuxv
p313
aVJackscoty
p314
aVuiwhnikcc
p315
aVlyplgerggly
p316
aVsqupzzkfz
p317
aVysemxjtmbvc
p318
aVmhjkhymcsso
p319
aVeydhcqvew
p320
aVbzmkthdrqzi
p321
aViyiaejlbmju
p322
aVklara.galaxee
p323
aVihapmadmobr
p324
aVykpfbrbff
p325
aVdufolhvpbs
p326
aVTomeyhzn
p327
aVliuljiilsdf
p328
aViaxlsygnolt
p329
aVeuyrckjoxrm
p330
aVxotheitnb
p331
aVjoxsifrmdxo
p332
aVvwagioodgd
p333
aVqsmkjaorq
p334
aVWernerxtl
p335
aVsvrcszavou
p336
aVldjufcrhmi
p337
aVwgqitgtwsvz
p338
aVwykxexedfoy
p339
aVEarlvhc
p340
aVpbtaxgtnirz
p341
aVcoabcdfgwa
p342
aVkfoofktezjc
p343
aVabacrjyhfj
p344
aVOtisbuus
p345
aVWrightpks
p346
aVilibbjrfskn
p347
aVOliveribhhg
p348
aVlijiangguengy
p349
aVyowbwbbxhc
p350
aVHarlanmnm
p351
aVzuzwiliaibz
p352
aVbhdobdhcuhb
p353
aVfdpgddrxnbx
p354
aVxufuvsspq
p355
aViltsfqwlybj
p356
aVpofrjwovk
p357
aVHobartofxkf
p358
aVguruthejus
p359
aVumebisdjylp
p360
aVrvcyioxjn
p361
aVxvcyjptil
p362
aVNeilmij
p363
aVzpvhfpdrlbq
p364
aVEllisbstmy
p365
aVlvfxcmqwslm
p366
aVUlyssesyiub
p367
aVhjrwxjozsrs
p368
aVegmxeacwnsc
p369
aVvcchfdrvasg
p370
aVliujiangguenglj
p371
aVknphzfmyemm
p372
aVpueyahrtip
p373
aVowrrygfdlc
p374
aVFabiantvycg
p375
aVEarlpxcw
p376
aVyzndbrqlk
p377
aVSaxonkzksa
p378
aVpdjhrhaesir
p379
aVvrkukfbiu
p380
aVmbrsalrkysd
p381
aVppgdhayppga
p382
aVWilliambqqwe
p383
aVrdrueqilics
p384
aVxcvnsmmftdp
p385
aVcwyxfqopqbg
p386
aVWebsteriuou
p387
aVtdreceneyln
p388
aVHamiltionbtv
p389
aVrcrunxgzdps
p390
aVHobartwly
p391
aVElmerhhiu
p392
aVTimbpq
p393
aVajrnsatkrk
p394
aVwpskk_irir
p395
aVwvezavencvs
p396
aVpgnxghmcwye
p397
aVrgpnjsyqsup
p398
aVdunnpbyxbii
p399
aVarthurlj
p400
aVkncycadinis
p401
aVcqppwpbdny
p402
aVEdengdm
p403
aVtbfduocjsd
p404
aVukffrxrmkl
p405
aVstnlgjykwh
p406
aVhokxphppas
p407
aVTroybapt
p408
aVjusskah
p409
aVdifxttqzt
p410
aVomdaexdipze
p411
aVfraiwqkjm
p412
aVEltonlooa
p413
aVYaleshlu
p414
aVDonahueuzck
p415
aVysfttarrlrk
p416
aVucxurnuyiid
p417
aVEugeneuuds
p418
aVxybccooqrid
p419
aVetakdwsikdy
p420
aVgvonevkyp
p421
aVFitzgeraldnmgoi
p422
aVliguanglingey
p423
aVJayneekj
p424
aVcgthvcjmomw
p425
aVSimonnyg
p426
aVjudhmnrslqs
p427
aVrwsuvgdeik
p428
aVxdhijmjciey
p429
aVGustavemwgpn
p430
aVhchzfyedoug
p431
aVmwondovykop
p432
aVIvesfvcp
p433
aVtxpyvuwqmsl
p434
aVkcgqyunbasl
p435
aVSimonpkd
p436
aVchmb123
p437
aVluvsharma1931
p438
aVEgbertdage
p439
aVToddygqq
p440
aVwwzaqvtadgt
p441
aVtzaliheygmy
p442
aVxikopyuxm
p443
aVEarlkxbc
p444
aVwhcrmmeownt
p445
aV_indy
p446
aVygfhvvfhw
p447
aVrizxtxdjcb
p448
aVrcobznojnqd
p449
aVglprvjjaw
p450
aVStanleyxggvj
p451
aVdxjwudmfzal
p452
aVcatlencwwad
p453
aVLeosotv
p454
aVWythealhit
p455
aVzbygxchvrv
p456
aVTabnktvw
p457
aVznmpgnkjobq
p458
aVeezpqcqvsbj
p459
aVkmekxgnsgt
p460
aVupendra_sengar
p461
aVwdkpleblrjg
p462
aVcguabdabzrw
p463
aVRyandkbut
p464
aVzqddcrdbkl
p465
aVdzmgciwjnil
p466
aVftqpdawydcr
p467
aVxxcvuydmpfi
p468
aVmnxsinkgdim
p469
aVhkrxcziaq
p470
aViekosrfexns
p471
aVTimrsjam
p472
aVouqctylpzk
p473
aVjytmvpqlkvm
p474
aVNicholasafqr
p475
aVxhubwtmwyd
p476
aVzscwukqllms
p477
aVzfpephxws
p478
aVJosephphse
p479
aVwqiihaqet
p480
aVdsadsafqww
p481
aVwmpdvclnxhd
p482
aVnzeuqnkcbjo
p483
aVdpzekpujxtj
p484
aVcetuyeimn
p485
aVEnochxjhl
p486
aVweaver-at-work
p487
aVDevinzje
p488
aVswsqdsvhg
p489
aVOswaldwfvss
p490
aVbanfbjwef
p491
aVqqfpbyuqxst
p492
aVuxprhkbgpoo
p493
aVrhaehttwlqj
p494
aVxokhtpyavt
p495
aVxjpczsdad
p496
aVarthurjlp
p497
aVyfvvqjscfve
p498
aVnzstxttwgbe
p499
aVyxfuazcyfuu
p500
aVupugzxnksjk
p501
aVtbecffhhd
p502
aVcatcpzvzrsw
p503
aVIsaacpeujz
p504
aVaocblrtjzc
p505
aVoqddpcjut
p506
aVWinstonobcr
p507
aVParkeruskv
p508
aVuptigqkaifm
p509
aVEdisoncax
p510
aVlypwerwerw
p511
aVquqbykkhcqu
p512
aVageagexx20
p513
aVxpuuqmatbq
p514
aVMaximilianjnf
p515
aVbjyabgufotp
p516
aVpzytmgnzy
p517
aVhahrracztce
p518
aVParkerilhem
p519
aVkvsizevbzpe
p520
aVliunisippm_jsi
p521
aVsatlppqfdpd
p522
aVbbtgrlxqwbd
p523
aVhxmcxkilhiq
p524
aVwdwnzkvwncz
p525
aVesaiytvdvm
p526
aVsujvockfhmt
p527
aVgozidlyxih
p528
aVagryrwkdaiy
p529
aVGregaryqms
p530
aVkcvzhhzorce
p531
aVdrclnydzcdj
p532
aVwayeuphblzi
p533
aVjziqevcsbc
p534
aVLeifsatd
p535
aVwecxieliyw
p536
aVgbrvysztdlz
p537
aVezfusogng
p538
aVyxyewgukgdz
p539
aVsqwgiyomyq
p540
aVwzrnsswhyt
p541
aVqvsiqntembe
p542
aVufcrcpifdso
p543
aVJeromeagy
p544
aVnfvoqxcfqbe
p545
aVjzhozbjorhy
p546
aVMattrmp
p547
aVTyroneirx
p548
aVMarshallqguko
p549
aVciyhdoovpl
p550
aVKerwinpjv
p551
aVwkapcozmd
p552
aVavvkvklspdk
p553
aVhsbxqsznwfm
p554
aVmkoguvpkwhe
p555
aVtzpjahjkkdz
p556
aVVikas.Polowalia
p557
aVHiramefkf
p558
aVrmleclybalv
p559
aVivfxynzit
p560
aVkbcxsbmymkt
p561
aVizzzkfdfud
p562
aVDonahueeidya
p563
aVahrcmajumew
p564
aVmwrxvxirngo
p565
aVOliveraxel
p566
aVGroverhdykh
p567
aVecnmcyqkmgl
p568
aVxyxeotojsiu
p569
aVmeodtkxcxad
p570
aVDylangpc
p571
aVMauricesjbdt
p572
aVwbfrymhmljr
p573
aVAdrien.Baron
p574
aVmiavuwhshed
p575
aVtmromfvdwud
p576
aVPaddycuxz
p577
aVopdwdoqrffe
p578
aVdtqevyubk
p579
aVktsziotrwah
p580
aVguaoyoulingery
p581
aVxvimqhcsmms
p582
aVihhzmchxawz
p583
aVnqolitmxo
p584
aVlfugrglbx
p585
aVolpkxwdnubj
p586
aVEverleymmv
p587
aVicieogsungn
p588
aVvsrohtmjcs
p589
aVipbiivzbut
p590
aVodbsffyyfqr
p591
aVlerwerwrer
p592
aVkxkjtqflldd
p593
aVwenzhiLIU
p594
aVPrimoplcst
p595
aVrpmtcsgbi
p596
aVYalefibw
p597
aVikvnuhnrwxq
p598
aVuyefvhpok
p599
aVdvihmnqsvao
p600
aVmf1008
p601
aVxtlzyzamszg
p602
aVbdxtveclhpr
p603
aVMandelpfi
p604
aVzriffzjeljg
p605
aVozbjjixhmx
p606
aVconucpolzoj
p607
aVxwavhedvppu
p608
aVgoirumzxxv
p609
aVJuliusapctl
p610
aVabdefvdofqn
p611
aVtesqrokcqoy
p612
aVepyqwfjpmeg
p613
aVvwzfhmmzfc
p614
aVzhangjiuguanglg
p615
aVmxipenqloxg
p616
aVgniqatgcjcm
p617
aVbmxnigzev
p618
aVSilvesterpir
p619
aVanhpubfsii
p620
aVwqrqwrqrqw
p621
aVEarlpodu
p622
aVDumbfire
p623
aVvtmdjvtdc
p624
aVololbrwtszj
p625
aVliqofdiihvo
p626
aVahzcgreajwf
p627
aVHoracecseay
p628
aVTheobaldwtzpb
p629
aVaijqbqjaci
p630
aVTobyjbyzn
p631
atp632
Rp633
.